target datalayout = "e-m:e-p270:32:32-p271:32:32-p272:64:64-i64:64-i128:128-f80:128-n8:16:32:64-S128"
target triple = "x86_64-pc-linux-gnu"

%struct.png_info_def = type { i32, i32, i32, i64, ptr, i16, i16, i8, i8, i8, i8, i8, i8, i8, i8, [8 x i8], %struct.png_colorspace, ptr, ptr, i32, i32, i32, ptr, %struct.png_time_struct, %struct.png_color_8_struct, ptr, %struct.png_color_16_struct, %struct.png_color_16_struct, i32, i32, i8, i32, i32, i8, i32, ptr, ptr, ptr, ptr, i32, i32, ptr, ptr, i8, i8, i32, ptr, i32, ptr, i32, i8, ptr, ptr, ptr }
%struct.png_colorspace = type { i32, %struct.png_xy, %struct.png_XYZ, i16, i16 }
%struct.png_xy = type { i32, i32, i32, i32, i32, i32, i32, i32 }
%struct.png_XYZ = type { i32, i32, i32, i32, i32, i32, i32, i32, i32 }
%struct.png_time_struct = type { i16, i8, i8, i8, i8, i8 }
%struct.png_color_8_struct = type { i8, i8, i8, i8, i8 }
%struct.png_color_16_struct = type { i8, i16, i16, i16, i16 }

@.str.16 = private unnamed_addr constant [27 x i8] c"Invalid pCAL equation type\00", align 1
@.str.17 = private unnamed_addr constant [29 x i8] c"Invalid pCAL parameter count\00", align 1
@.str.18 = private unnamed_addr constant [34 x i8] c"Invalid format for pCAL parameter\00", align 1
@.str.19 = private unnamed_addr constant [37 x i8] c"Insufficient memory for pCAL purpose\00", align 1
@.str.20 = private unnamed_addr constant [35 x i8] c"Insufficient memory for pCAL units\00", align 1
@.str.21 = private unnamed_addr constant [36 x i8] c"Insufficient memory for pCAL params\00", align 1
@.str.22 = private unnamed_addr constant [39 x i8] c"Insufficient memory for pCAL parameter\00", align 1

; Function Attrs: nounwind uwtable
define void @png_set_pCAL(ptr noalias noundef %0, ptr noalias noundef %1, ptr noundef %2, i32 noundef %3, i32 noundef %4, i32 noundef %5, i32 noundef %6, ptr noundef %7, ptr noundef %8) #0 {
  %10 = alloca ptr, align 8
  %11 = alloca ptr, align 8
  %12 = alloca ptr, align 8
  %13 = alloca i32, align 4
  %14 = alloca i32, align 4
  %15 = alloca i32, align 4
  %16 = alloca i32, align 4
  %17 = alloca ptr, align 8
  %18 = alloca ptr, align 8
  %19 = alloca i64, align 8
  %20 = alloca i32, align 4
  store ptr %0, ptr %10, align 8
  store ptr %1, ptr %11, align 8
  store ptr %2, ptr %12, align 8
  store i32 %3, ptr %13, align 4
  store i32 %4, ptr %14, align 4
  store i32 %5, ptr %15, align 4
  store i32 %6, ptr %16, align 4
  store ptr %7, ptr %17, align 8
  store ptr %8, ptr %18, align 8
  %21 = load ptr, ptr %10, align 8
  %22 = icmp eq ptr %21, null
  br i1 %22, label %38, label %23

23:                                               ; preds = %9
  %24 = load ptr, ptr %11, align 8
  %25 = icmp eq ptr %24, null
  br i1 %25, label %38, label %26

26:                                               ; preds = %23
  %27 = load ptr, ptr %12, align 8
  %28 = icmp eq ptr %27, null
  br i1 %28, label %38, label %29

29:                                               ; preds = %26
  %30 = load ptr, ptr %17, align 8
  %31 = icmp eq ptr %30, null
  br i1 %31, label %38, label %32

32:                                               ; preds = %29
  %33 = load i32, ptr %16, align 4
  %34 = icmp sgt i32 %33, 0
  br i1 %34, label %35, label %39

35:                                               ; preds = %32
  %36 = load ptr, ptr %18, align 8
  %37 = icmp eq ptr %36, null
  br i1 %37, label %38, label %39

38:                                               ; preds = %35, %29, %26, %23, %9
  br label %221

39:                                               ; preds = %35, %32
  %40 = load ptr, ptr %12, align 8
  %41 = call i64 @strlen(ptr noundef %40) #6
  %42 = add i64 %41, 1
  store i64 %42, ptr %19, align 8
  %43 = load i32, ptr %15, align 4
  %44 = icmp slt i32 %43, 0
  br i1 %44, label %48, label %45

45:                                               ; preds = %39
  %46 = load i32, ptr %15, align 4
  %47 = icmp sgt i32 %46, 3
  br i1 %47, label %48, label %50

48:                                               ; preds = %45, %39
  %49 = load ptr, ptr %10, align 8
  call void @png_chunk_report(ptr noundef %49, ptr noundef @.str.16, i32 noundef 1)
  br label %221

50:                                               ; preds = %45
  %51 = load i32, ptr %16, align 4
  %52 = icmp slt i32 %51, 0
  br i1 %52, label %56, label %53

53:                                               ; preds = %50
  %54 = load i32, ptr %16, align 4
  %55 = icmp sgt i32 %54, 255
  br i1 %55, label %56, label %58

56:                                               ; preds = %53, %50
  %57 = load ptr, ptr %10, align 8
  call void @png_chunk_report(ptr noundef %57, ptr noundef @.str.17, i32 noundef 1)
  br label %221

58:                                               ; preds = %53
  store i32 0, ptr %20, align 4
  br label %59

59:                                               ; preds = %87, %58
  %60 = load i32, ptr %20, align 4
  %61 = load i32, ptr %16, align 4
  %62 = icmp slt i32 %60, %61
  br i1 %62, label %63, label %90

63:                                               ; preds = %59
  %64 = load ptr, ptr %18, align 8
  %65 = load i32, ptr %20, align 4
  %66 = sext i32 %65 to i64
  %67 = getelementptr inbounds ptr, ptr %64, i64 %66
  %68 = load ptr, ptr %67, align 8
  %69 = icmp eq ptr %68, null
  br i1 %69, label %84, label %70

70:                                               ; preds = %63
  %71 = load ptr, ptr %18, align 8
  %72 = load i32, ptr %20, align 4
  %73 = sext i32 %72 to i64
  %74 = getelementptr inbounds ptr, ptr %71, i64 %73
  %75 = load ptr, ptr %74, align 8
  %76 = load ptr, ptr %18, align 8
  %77 = load i32, ptr %20, align 4
  %78 = sext i32 %77 to i64
  %79 = getelementptr inbounds ptr, ptr %76, i64 %78
  %80 = load ptr, ptr %79, align 8
  %81 = call i64 @strlen(ptr noundef %80) #6
  %82 = call i32 @png_check_fp_string(ptr noundef %75, i64 noundef %81)
  %83 = icmp ne i32 %82, 0
  br i1 %83, label %86, label %84

84:                                               ; preds = %70, %63
  %85 = load ptr, ptr %10, align 8
  call void @png_chunk_report(ptr noundef %85, ptr noundef @.str.18, i32 noundef 1)
  br label %221

86:                                               ; preds = %70
  br label %87

87:                                               ; preds = %86
  %88 = load i32, ptr %20, align 4
  %89 = add nsw i32 %88, 1
  store i32 %89, ptr %20, align 4
  br label %59, !llvm.loop !6

90:                                               ; preds = %59
  %91 = load ptr, ptr %10, align 8
  %92 = load i64, ptr %19, align 8
  %93 = call noalias ptr @png_malloc_warn(ptr noundef %91, i64 noundef %92)
  %94 = load ptr, ptr %11, align 8
  %95 = getelementptr inbounds %struct.png_info_def, ptr %94, i32 0, i32 38
  store ptr %93, ptr %95, align 8
  %96 = load ptr, ptr %11, align 8
  %97 = getelementptr inbounds %struct.png_info_def, ptr %96, i32 0, i32 38
  %98 = load ptr, ptr %97, align 8
  %99 = icmp eq ptr %98, null
  br i1 %99, label %100, label %102

100:                                              ; preds = %90
  %101 = load ptr, ptr %10, align 8
  call void @png_chunk_report(ptr noundef %101, ptr noundef @.str.19, i32 noundef 1)
  br label %221

102:                                              ; preds = %90
  %103 = load ptr, ptr %11, align 8
  %104 = getelementptr inbounds %struct.png_info_def, ptr %103, i32 0, i32 38
  %105 = load ptr, ptr %104, align 8
  %106 = load ptr, ptr %12, align 8
  %107 = load i64, ptr %19, align 8
  call void @llvm.memcpy.p0.p0.i64(ptr align 1 %105, ptr align 1 %106, i64 %107, i1 false)
  %108 = load ptr, ptr %11, align 8
  %109 = getelementptr inbounds %struct.png_info_def, ptr %108, i32 0, i32 45
  %110 = load i32, ptr %109, align 4
  %111 = or i32 %110, 128
  store i32 %111, ptr %109, align 4
  %112 = load i32, ptr %13, align 4
  %113 = load ptr, ptr %11, align 8
  %114 = getelementptr inbounds %struct.png_info_def, ptr %113, i32 0, i32 39
  store i32 %112, ptr %114, align 8
  %115 = load i32, ptr %14, align 4
  %116 = load ptr, ptr %11, align 8
  %117 = getelementptr inbounds %struct.png_info_def, ptr %116, i32 0, i32 40
  store i32 %115, ptr %117, align 4
  %118 = load i32, ptr %15, align 4
  %119 = trunc i32 %118 to i8
  %120 = load ptr, ptr %11, align 8
  %121 = getelementptr inbounds %struct.png_info_def, ptr %120, i32 0, i32 43
  store i8 %119, ptr %121, align 8
  %122 = load i32, ptr %16, align 4
  %123 = trunc i32 %122 to i8
  %124 = load ptr, ptr %11, align 8
  %125 = getelementptr inbounds %struct.png_info_def, ptr %124, i32 0, i32 44
  store i8 %123, ptr %125, align 1
  %126 = load ptr, ptr %17, align 8
  %127 = call i64 @strlen(ptr noundef %126) #6
  %128 = add i64 %127, 1
  store i64 %128, ptr %19, align 8
  %129 = load ptr, ptr %10, align 8
  %130 = load i64, ptr %19, align 8
  %131 = call noalias ptr @png_malloc_warn(ptr noundef %129, i64 noundef %130)
  %132 = load ptr, ptr %11, align 8
  %133 = getelementptr inbounds %struct.png_info_def, ptr %132, i32 0, i32 41
  store ptr %131, ptr %133, align 8
  %134 = load ptr, ptr %11, align 8
  %135 = getelementptr inbounds %struct.png_info_def, ptr %134, i32 0, i32 41
  %136 = load ptr, ptr %135, align 8
  %137 = icmp eq ptr %136, null
  br i1 %137, label %138, label %140

138:                                              ; preds = %102
  %139 = load ptr, ptr %10, align 8
  call void @png_warning(ptr noundef %139, ptr noundef @.str.20)
  br label %221

140:                                              ; preds = %102
  %141 = load ptr, ptr %11, align 8
  %142 = getelementptr inbounds %struct.png_info_def, ptr %141, i32 0, i32 41
  %143 = load ptr, ptr %142, align 8
  %144 = load ptr, ptr %17, align 8
  %145 = load i64, ptr %19, align 8
  call void @llvm.memcpy.p0.p0.i64(ptr align 1 %143, ptr align 1 %144, i64 %145, i1 false)
  %146 = load ptr, ptr %10, align 8
  %147 = load i32, ptr %16, align 4
  %148 = add i32 %147, 1
  %149 = zext i32 %148 to i64
  %150 = mul i64 %149, 8
  %151 = call noalias ptr @png_malloc_warn(ptr noundef %146, i64 noundef %150)
  %152 = load ptr, ptr %11, align 8
  %153 = getelementptr inbounds %struct.png_info_def, ptr %152, i32 0, i32 42
  store ptr %151, ptr %153, align 8
  %154 = load ptr, ptr %11, align 8
  %155 = getelementptr inbounds %struct.png_info_def, ptr %154, i32 0, i32 42
  %156 = load ptr, ptr %155, align 8
  %157 = icmp eq ptr %156, null
  br i1 %157, label %158, label %160

158:                                              ; preds = %140
  %159 = load ptr, ptr %10, align 8
  call void @png_warning(ptr noundef %159, ptr noundef @.str.21)
  br label %221

160:                                              ; preds = %140
  %161 = load ptr, ptr %11, align 8
  %162 = getelementptr inbounds %struct.png_info_def, ptr %161, i32 0, i32 42
  %163 = load ptr, ptr %162, align 8
  %164 = load i32, ptr %16, align 4
  %165 = add i32 %164, 1
  %166 = zext i32 %165 to i64
  %167 = mul i64 %166, 8
  call void @llvm.memset.p0.i64(ptr align 8 %163, i8 0, i64 %167, i1 false)
  store i32 0, ptr %20, align 4
  br label %168

168:                                              ; preds = %213, %160
  %169 = load i32, ptr %20, align 4
  %170 = load i32, ptr %16, align 4
  %171 = icmp slt i32 %169, %170
  br i1 %171, label %172, label %216

172:                                              ; preds = %168
  %173 = load ptr, ptr %18, align 8
  %174 = load i32, ptr %20, align 4
  %175 = sext i32 %174 to i64
  %176 = getelementptr inbounds ptr, ptr %173, i64 %175
  %177 = load ptr, ptr %176, align 8
  %178 = call i64 @strlen(ptr noundef %177) #6
  %179 = add i64 %178, 1
  store i64 %179, ptr %19, align 8
  %180 = load ptr, ptr %10, align 8
  %181 = load i64, ptr %19, align 8
  %182 = call noalias ptr @png_malloc_warn(ptr noundef %180, i64 noundef %181)
  %183 = load ptr, ptr %11, align 8
  %184 = getelementptr inbounds %struct.png_info_def, ptr %183, i32 0, i32 42
  %185 = load ptr, ptr %184, align 8
  %186 = load i32, ptr %20, align 4
  %187 = sext i32 %186 to i64
  %188 = getelementptr inbounds ptr, ptr %185, i64 %187
  store ptr %182, ptr %188, align 8
  %189 = load ptr, ptr %11, align 8
  %190 = getelementptr inbounds %struct.png_info_def, ptr %189, i32 0, i32 42
  %191 = load ptr, ptr %190, align 8
  %192 = load i32, ptr %20, align 4
  %193 = sext i32 %192 to i64
  %194 = getelementptr inbounds ptr, ptr %191, i64 %193
  %195 = load ptr, ptr %194, align 8
  %196 = icmp eq ptr %195, null
  br i1 %196, label %197, label %199

197:                                              ; preds = %172
  %198 = load ptr, ptr %10, align 8
  call void @png_warning(ptr noundef %198, ptr noundef @.str.22)
  br label %221

199:                                              ; preds = %172
  %200 = load ptr, ptr %11, align 8
  %201 = getelementptr inbounds %struct.png_info_def, ptr %200, i32 0, i32 42
  %202 = load ptr, ptr %201, align 8
  %203 = load i32, ptr %20, align 4
  %204 = sext i32 %203 to i64
  %205 = getelementptr inbounds ptr, ptr %202, i64 %204
  %206 = load ptr, ptr %205, align 8
  %207 = load ptr, ptr %18, align 8
  %208 = load i32, ptr %20, align 4
  %209 = sext i32 %208 to i64
  %210 = getelementptr inbounds ptr, ptr %207, i64 %209
  %211 = load ptr, ptr %210, align 8
  %212 = load i64, ptr %19, align 8
  call void @llvm.memcpy.p0.p0.i64(ptr align 1 %206, ptr align 1 %211, i64 %212, i1 false)
  br label %213

213:                                              ; preds = %199
  %214 = load i32, ptr %20, align 4
  %215 = add nsw i32 %214, 1
  store i32 %215, ptr %20, align 4
  br label %168, !llvm.loop !7

216:                                              ; preds = %168
  %217 = load ptr, ptr %11, align 8
  %218 = getelementptr inbounds %struct.png_info_def, ptr %217, i32 0, i32 2
  %219 = load i32, ptr %218, align 8
  %220 = or i32 %219, 1024
  store i32 %220, ptr %218, align 8
  br label %221

221:                                              ; preds = %216, %197, %158, %138, %100, %84, %56, %48, %38
  ret void
}