; Function Attrs: nounwind uwtable
define void @png_set_pCAL(ptr noalias noundef %0, ptr noalias noundef %1, ptr noundef readonly %2, i32 noundef %3, i32 noundef %4, i32 noundef %5, i32 noundef %6, ptr noundef readonly %7, ptr noundef readonly %8) local_unnamed_addr #2 {
  %10 = insertelement <4 x ptr> poison, ptr %0, i64 0
  %11 = insertelement <4 x ptr> %10, ptr %1, i64 1
  %12 = insertelement <4 x ptr> %11, ptr %2, i64 2
  %13 = insertelement <4 x ptr> %12, ptr %7, i64 3
  %14 = icmp eq <4 x ptr> %13, zeroinitializer
  %15 = bitcast <4 x i1> %14 to i4
  %.not108 = icmp eq i4 %15, 0
  br i1 %.not108, label %16, label %79

16:                                               ; preds = %9
  %17 = icmp sgt i32 %6, 0
  %18 = icmp eq ptr %8, null
  %or.cond7 = and i1 %17, %18
  br i1 %or.cond7, label %79, label %19

19:                                               ; preds = %16
  %20 = tail call i64 @strlen(ptr noundef nonnull dereferenceable(1) %2) #13
  %21 = add i64 %20, 1
  %or.cond9 = icmp ugt i32 %5, 3
  br i1 %or.cond9, label %22, label %23

22:                                               ; preds = %19
  tail call void @png_chunk_report(ptr noundef nonnull %0, ptr noundef nonnull @.str.16, i32 noundef 1) #12
  br label %79

23:                                               ; preds = %19
  %or.cond11 = icmp ugt i32 %6, 255
  br i1 %or.cond11, label %24, label %.preheader

.preheader:                                       ; preds = %23
  %.not100 = icmp eq i32 %6, 0
  br i1 %.not100, label %._crit_edge, label %.lr.ph.preheader

.lr.ph.preheader:                                 ; preds = %.preheader
  %wide.trip.count = zext nneg i32 %6 to i64
  br label %.lr.ph

24:                                               ; preds = %23
  tail call void @png_chunk_report(ptr noundef nonnull %0, ptr noundef nonnull @.str.17, i32 noundef 1) #12
  br label %79

25:                                               ; preds = %29
  %indvars.iv.next = add nuw nsw i64 %indvars.iv, 1
  %exitcond.not = icmp eq i64 %indvars.iv.next, %wide.trip.count
  br i1 %exitcond.not, label %._crit_edge, label %.lr.ph, !llvm.loop !18

.lr.ph:                                           ; preds = %.lr.ph.preheader, %25
  %indvars.iv = phi i64 [ 0, %.lr.ph.preheader ], [ %indvars.iv.next, %25 ]
  %26 = getelementptr inbounds ptr, ptr %8, i64 %indvars.iv
  %27 = load ptr, ptr %26, align 8
  %28 = icmp eq ptr %27, null
  br i1 %28, label %32, label %29

29:                                               ; preds = %.lr.ph
  %30 = tail call i64 @strlen(ptr noundef nonnull dereferenceable(1) %27) #13
  %31 = tail call i32 @png_check_fp_string(ptr noundef nonnull %27, i64 noundef %30) #12
  %.not = icmp eq i32 %31, 0
  br i1 %.not, label %32, label %25

32:                                               ; preds = %29, %.lr.ph
  tail call void @png_chunk_report(ptr noundef %0, ptr noundef nonnull @.str.18, i32 noundef 1) #12
  br label %79

._crit_edge:                                      ; preds = %25, %.preheader
  %33 = tail call noalias ptr @png_malloc_warn(ptr noundef %0, i64 noundef %21) #12
  %34 = getelementptr inbounds i8, ptr %1, i64 264
  store ptr %33, ptr %34, align 8
  %35 = icmp eq ptr %33, null
  br i1 %35, label %36, label %37

36:                                               ; preds = %._crit_edge
  tail call void @png_chunk_report(ptr noundef %0, ptr noundef nonnull @.str.19, i32 noundef 1) #12
  br label %79

37:                                               ; preds = %._crit_edge
  tail call void @llvm.memcpy.p0.p0.i64(ptr nonnull align 1 %33, ptr align 1 %2, i64 %21, i1 false)
  %38 = getelementptr inbounds i8, ptr %1, i64 300
  %39 = load i32, ptr %38, align 4
  %40 = or i32 %39, 128
  store i32 %40, ptr %38, align 4
  %41 = getelementptr inbounds i8, ptr %1, i64 272
  store i32 %3, ptr %41, align 8
  %42 = getelementptr inbounds i8, ptr %1, i64 276
  store i32 %4, ptr %42, align 4
  %43 = trunc nuw nsw i32 %5 to i8
  %44 = getelementptr inbounds i8, ptr %1, i64 296
  store i8 %43, ptr %44, align 8
  %45 = trunc nuw i32 %6 to i8
  %46 = getelementptr inbounds i8, ptr %1, i64 297
  store i8 %45, ptr %46, align 1
  %47 = tail call i64 @strlen(ptr noundef nonnull dereferenceable(1) %7) #13
  %48 = add i64 %47, 1
  %49 = tail call noalias ptr @png_malloc_warn(ptr noundef %0, i64 noundef %48) #12
  %50 = getelementptr inbounds i8, ptr %1, i64 280
  store ptr %49, ptr %50, align 8
  %51 = icmp eq ptr %49, null
  br i1 %51, label %52, label %53

52:                                               ; preds = %37
  tail call void @png_warning(ptr noundef %0, ptr noundef nonnull @.str.20) #12
  br label %79

53:                                               ; preds = %37
  tail call void @llvm.memcpy.p0.p0.i64(ptr nonnull align 1 %49, ptr align 1 %7, i64 %48, i1 false)
  %54 = shl nuw nsw i32 %6, 3
  %55 = add nuw nsw i32 %54, 8
  %56 = zext nneg i32 %55 to i64
  %57 = tail call noalias ptr @png_malloc_warn(ptr noundef %0, i64 noundef %56) #12
  %58 = getelementptr inbounds i8, ptr %1, i64 288
  store ptr %57, ptr %58, align 8
  %59 = icmp eq ptr %57, null
  br i1 %59, label %60, label %61

60:                                               ; preds = %53
  tail call void @png_warning(ptr noundef %0, ptr noundef nonnull @.str.21) #12
  br label %79

61:                                               ; preds = %53
  tail call void @llvm.memset.p0.i64(ptr noundef nonnull align 8 dereferenceable(1) %57, i8 0, i64 %56, i1 false)
  br i1 %.not100, label %._crit_edge99, label %.lr.ph98.preheader

.lr.ph98.preheader:                               ; preds = %61
  %smax = tail call i32 @llvm.smax.i32(i32 %6, i32 1)
  %wide.trip.count106 = zext nneg i32 %smax to i64
  br label %.lr.ph98

.lr.ph98:                                         ; preds = %.lr.ph98.preheader, %74
  %indvars.iv103 = phi i64 [ 0, %.lr.ph98.preheader ], [ %indvars.iv.next104, %74 ]
  %62 = getelementptr inbounds ptr, ptr %8, i64 %indvars.iv103
  %63 = load ptr, ptr %62, align 8
  %64 = tail call i64 @strlen(ptr noundef nonnull dereferenceable(1) %63) #13
  %65 = add i64 %64, 1
  %66 = tail call noalias ptr @png_malloc_warn(ptr noundef %0, i64 noundef %65) #12
  %67 = load ptr, ptr %58, align 8
  %68 = getelementptr inbounds ptr, ptr %67, i64 %indvars.iv103
  store ptr %66, ptr %68, align 8
  %69 = load ptr, ptr %58, align 8
  %70 = getelementptr inbounds ptr, ptr %69, i64 %indvars.iv103
  %71 = load ptr, ptr %70, align 8
  %72 = icmp eq ptr %71, null
  br i1 %72, label %73, label %74

73:                                               ; preds = %.lr.ph98
  tail call void @png_warning(ptr noundef %0, ptr noundef nonnull @.str.22) #12
  br label %79

74:                                               ; preds = %.lr.ph98
  %75 = load ptr, ptr %62, align 8
  tail call void @llvm.memcpy.p0.p0.i64(ptr nonnull align 1 %71, ptr align 1 %75, i64 %65, i1 false)
  %indvars.iv.next104 = add nuw nsw i64 %indvars.iv103, 1
  %exitcond107.not = icmp eq i64 %indvars.iv.next104, %wide.trip.count106
  br i1 %exitcond107.not, label %._crit_edge99, label %.lr.ph98, !llvm.loop !19

._crit_edge99:                                    ; preds = %74, %61
  %76 = getelementptr inbounds i8, ptr %1, i64 8
  %77 = load i32, ptr %76, align 8
  %78 = or i32 %77, 1024
  store i32 %78, ptr %76, align 8
  br label %79

79:                                               ; preds = %9, %16, %._crit_edge99, %73, %60, %52, %36, %32, %24, %22
  ret void
}